; Function Attrs: mustprogress uwtable
define internal noundef nonnull ptr @_ZN7testing8internal24ParameterizedTestFactoryIN4absl12_GLOBAL__N_139CordzStringTest_AppendStringToCord_TestEE10CreateTestEv(ptr noundef nonnull align 8 dereferenceable(12) %0) unnamed_addr #3 align 2 personality ptr @__gxx_personality_v0 {
  %2 = getelementptr inbounds nuw i8, ptr %0, i64 8
  store ptr %2, ptr @_ZN7testing18WithParamInterfaceIN4absl12TestCordSizeEE10parameter_E, align 8, !tbaa !73
  %3 = tail call noalias noundef nonnull dereferenceable(32) ptr @_Znwm(i64 noundef 32) #35
  invoke void @_ZN7testing4TestC2Ev(ptr noundef nonnull align 8 dereferenceable(28) %3)
          to label %.noexc unwind label %10

.noexc:                                           ; preds = %1
  %4 = getelementptr inbounds nuw i8, ptr %3, i64 16
  store ptr getelementptr inbounds nuw inrange(-16, 48) (i8, ptr @_ZTVN4absl12_GLOBAL__N_115CordzStringTestE, i64 16), ptr %3, align 8, !tbaa !18
  store ptr getelementptr inbounds nuw inrange(-16, 16) (i8, ptr @_ZTVN4absl12_GLOBAL__N_115CordzStringTestE, i64 80), ptr %4, align 8, !tbaa !18
  %5 = invoke noundef i32 @_ZN4absl13cord_internal23get_cordz_mean_intervalEv()
          to label %.noexc.i.i unwind label %7

.noexc.i.i:                                       ; preds = %.noexc
  %6 = getelementptr inbounds nuw i8, ptr %3, i64 24
  store i32 %5, ptr %6, align 4, !tbaa !100
  invoke void @_ZN4absl13cord_internal23set_cordz_mean_intervalEi(i32 noundef 1)
          to label %.noexc2.i.i unwind label %7

.noexc2.i.i:                                      ; preds = %.noexc.i.i
  invoke void @_ZN4absl13cord_internal33cordz_set_next_sample_for_testingEl(i64 noundef 1)
          to label %9 unwind label %7

7:                                                ; preds = %.noexc2.i.i, %.noexc.i.i, %.noexc
  %8 = landingpad { ptr, i32 }
          cleanup
  tail call void @_ZN7testing4TestD2Ev(ptr noundef nonnull align 8 dereferenceable(28) %3) #17
  br label %.body

9:                                                ; preds = %.noexc2.i.i
  store ptr getelementptr inbounds nuw inrange(-16, 48) (i8, ptr @_ZTVN4absl12_GLOBAL__N_139CordzStringTest_AppendStringToCord_TestE, i64 16), ptr %3, align 8, !tbaa !18
  store ptr getelementptr inbounds nuw inrange(-16, 16) (i8, ptr @_ZTVN4absl12_GLOBAL__N_139CordzStringTest_AppendStringToCord_TestE, i64 80), ptr %4, align 8, !tbaa !18
  ret ptr %3

10:                                               ; preds = %1
  %11 = landingpad { ptr, i32 }
          cleanup
  br label %.body

.body:                                            ; preds = %7, %10
  %eh.lpad-body = phi { ptr, i32 } [ %11, %10 ], [ %8, %7 ]
  tail call void @_ZdlPvm(ptr noundef nonnull %3, i64 noundef 32) #36
  resume { ptr, i32 } %eh.lpad-body
}